; Function Attrs: mustprogress nounwind uwtable
define dso_local noundef i32 @LLVMWriteBitcodeToFD(ptr noundef %0, i32 noundef %1, i32 noundef %2, i32 noundef %3) local_unnamed_addr #0 {
  %5 = alloca %"class.llvm::raw_fd_ostream", align 8
  %6 = icmp ne i32 %2, 0
  %7 = icmp ne i32 %3, 0
  call void @_ZN4llvm14raw_fd_ostreamC1EibbNS_11raw_ostream11OStreamKindE(ptr noundef nonnull align 8 dereferenceable(96) %5, i32 noundef %1, i1 noundef zeroext %6, i1 noundef zeroext %7, i32 noundef 0) #8
  call void @_ZN4llvm18WriteBitcodeToFileERKNS_6ModuleERNS_11raw_ostreamEbPKNS_18ModuleSummaryIndexEbPSt5arrayIjLm5EE(ptr noundef nonnull align 8 dereferenceable(857) %0, ptr noundef nonnull align 8 dereferenceable(48) %5, i1 noundef zeroext false, ptr noundef null, i1 noundef zeroext false, ptr noundef null) #8
  call void @_ZN4llvm14raw_fd_ostreamD1Ev(ptr noundef nonnull align 8 dereferenceable(96) %5) #8
  ret i32 0
}